(dp0
S'Blake'
p1
(dp2
S'website'
p3
S'blakebagwell.com'
p4
sS'number'
p5
S'770 873 4404'
p6
sS'email'
p7
S'sample1@sample.com'
p8
ssS'Ashley'
p9
(dp10
g3
S'sample.samplweb'
p11
sg5
S'678 922 3033'
p12
sg7
g8
ssS'Liette'
p13
(dp14
g3
S'sample.web'
p15
sg5
S'678 200 0811'
p16
sg7
g8
ssS'Mom'
p17
(dp18
g3
S'hello.com'
p19
sg5
S'678'
p20
sg7
S'kanook'
p21
ss.